target datalayout = "e-m:e-p270:32:32-p271:32:32-p272:64:64-i64:64-i128:128-f80:128-n8:16:32:64-S128"
target triple = "x86_64-pc-linux-gnu"

%struct.py_hashentry_t = type { ptr, ptr, ptr, i32, i32, ptr, ptr }
%struct._hashlibstate = type { ptr, ptr, ptr, ptr, ptr, ptr }

@.str.81 = private unnamed_addr constant [6 x i8] c"-fips\00", align 1
@.str.82 = private unnamed_addr constant [25 x i8] c"unsupported hash type %s\00", align 1

; Function Attrs: inlinehint nounwind uwtable
define internal ptr @get_hashlib_state(ptr noundef %0) #4 {
  %2 = alloca ptr, align 8
  %3 = alloca ptr, align 8
  store ptr %0, ptr %2, align 8, !tbaa !14
  call void @llvm.lifetime.start.p0(i64 8, ptr %3) #9
  %4 = load ptr, ptr %2, align 8, !tbaa !14
  %5 = call ptr @PyModule_GetState(ptr noundef %4)
  store ptr %5, ptr %3, align 8, !tbaa !3
  %6 = load ptr, ptr %3, align 8, !tbaa !3
  call void @llvm.lifetime.end.p0(i64 8, ptr %3) #9
  ret ptr %6
}

; Function Attrs: nounwind uwtable
define internal ptr @py_digest_by_name(ptr noundef %0, ptr noundef %1, i32 noundef %2) #0 {
  %4 = alloca ptr, align 8
  %5 = alloca ptr, align 8
  %6 = alloca ptr, align 8
  %7 = alloca i32, align 4
  %8 = alloca ptr, align 8
  %9 = alloca ptr, align 8
  %10 = alloca ptr, align 8
  %11 = alloca i32, align 4
  store ptr %0, ptr %5, align 8, !tbaa !14
  store ptr %1, ptr %6, align 8, !tbaa !21
  store i32 %2, ptr %7, align 4, !tbaa !19
  call void @llvm.lifetime.start.p0(i64 8, ptr %8) #9
  store ptr null, ptr %8, align 8, !tbaa !17
  call void @llvm.lifetime.start.p0(i64 8, ptr %9) #9
  %12 = load ptr, ptr %5, align 8, !tbaa !14
  %13 = call ptr @get_hashlib_state(ptr noundef %12)
  store ptr %13, ptr %9, align 8, !tbaa !3
  call void @llvm.lifetime.start.p0(i64 8, ptr %10) #9
  %14 = load ptr, ptr %9, align 8, !tbaa !3
  %15 = getelementptr inbounds nuw %struct._hashlibstate, ptr %14, i32 0, i32 5
  %16 = load ptr, ptr %15, align 8, !tbaa !66
  %17 = load ptr, ptr %6, align 8, !tbaa !21
  %18 = call ptr @_Py_hashtable_get(ptr noundef %16, ptr noundef %17)
  store ptr %18, ptr %10, align 8, !tbaa !3
  %19 = load ptr, ptr %10, align 8, !tbaa !3
  %20 = icmp ne ptr %19, null
  br i1 %20, label %21, label %62

21:                                               ; preds = %3
  %22 = load i32, ptr %7, align 4, !tbaa !19
  switch i32 %22, label %55 [
    i32 0, label %23
    i32 2, label %23
    i32 3, label %23
    i32 1, label %39
  ]

23:                                               ; preds = %21, %21, %21
  %24 = load ptr, ptr %10, align 8, !tbaa !3
  %25 = getelementptr inbounds nuw %struct.py_hashentry_t, ptr %24, i32 0, i32 5
  %26 = load ptr, ptr %25, align 8, !tbaa !72
  %27 = icmp eq ptr %26, null
  br i1 %27, label %28, label %35

28:                                               ; preds = %23
  %29 = load ptr, ptr %10, align 8, !tbaa !3
  %30 = getelementptr inbounds nuw %struct.py_hashentry_t, ptr %29, i32 0, i32 2
  %31 = load ptr, ptr %30, align 8, !tbaa !73
  %32 = call ptr @EVP_MD_fetch(ptr noundef null, ptr noundef %31, ptr noundef null)
  %33 = load ptr, ptr %10, align 8, !tbaa !3
  %34 = getelementptr inbounds nuw %struct.py_hashentry_t, ptr %33, i32 0, i32 5
  store ptr %32, ptr %34, align 8, !tbaa !72
  br label %35

35:                                               ; preds = %28, %23
  %36 = load ptr, ptr %10, align 8, !tbaa !3
  %37 = getelementptr inbounds nuw %struct.py_hashentry_t, ptr %36, i32 0, i32 5
  %38 = load ptr, ptr %37, align 8, !tbaa !72
  store ptr %38, ptr %8, align 8, !tbaa !17
  br label %55

39:                                               ; preds = %21
  %40 = load ptr, ptr %10, align 8, !tbaa !3
  %41 = getelementptr inbounds nuw %struct.py_hashentry_t, ptr %40, i32 0, i32 6
  %42 = load ptr, ptr %41, align 8, !tbaa !74
  %43 = icmp eq ptr %42, null
  br i1 %43, label %44, label %51

44:                                               ; preds = %39
  %45 = load ptr, ptr %10, align 8, !tbaa !3
  %46 = getelementptr inbounds nuw %struct.py_hashentry_t, ptr %45, i32 0, i32 2
  %47 = load ptr, ptr %46, align 8, !tbaa !73
  %48 = call ptr @EVP_MD_fetch(ptr noundef null, ptr noundef %47, ptr noundef @.str.81)
  %49 = load ptr, ptr %10, align 8, !tbaa !3
  %50 = getelementptr inbounds nuw %struct.py_hashentry_t, ptr %49, i32 0, i32 6
  store ptr %48, ptr %50, align 8, !tbaa !74
  br label %51

51:                                               ; preds = %44, %39
  %52 = load ptr, ptr %10, align 8, !tbaa !3
  %53 = getelementptr inbounds nuw %struct.py_hashentry_t, ptr %52, i32 0, i32 6
  %54 = load ptr, ptr %53, align 8, !tbaa !74
  store ptr %54, ptr %8, align 8, !tbaa !17
  br label %55

55:                                               ; preds = %21, %51, %35
  %56 = load ptr, ptr %8, align 8, !tbaa !17
  %57 = icmp ne ptr %56, null
  br i1 %57, label %58, label %61

58:                                               ; preds = %55
  %59 = load ptr, ptr %8, align 8, !tbaa !17
  %60 = call i32 @EVP_MD_up_ref(ptr noundef %59)
  br label %61

61:                                               ; preds = %58, %55
  br label %71

62:                                               ; preds = %3
  %63 = load i32, ptr %7, align 4, !tbaa !19
  switch i32 %63, label %70 [
    i32 0, label %64
    i32 2, label %64
    i32 3, label %64
    i32 1, label %67
  ]

64:                                               ; preds = %62, %62, %62
  %65 = load ptr, ptr %6, align 8, !tbaa !21
  %66 = call ptr @EVP_MD_fetch(ptr noundef null, ptr noundef %65, ptr noundef null)
  store ptr %66, ptr %8, align 8, !tbaa !17
  br label %70

67:                                               ; preds = %62
  %68 = load ptr, ptr %6, align 8, !tbaa !21
  %69 = call ptr @EVP_MD_fetch(ptr noundef null, ptr noundef %68, ptr noundef @.str.81)
  store ptr %69, ptr %8, align 8, !tbaa !17
  br label %70

70:                                               ; preds = %62, %67, %64
  br label %71

71:                                               ; preds = %70, %61
  %72 = load ptr, ptr %8, align 8, !tbaa !17
  %73 = icmp eq ptr %72, null
  br i1 %73, label %74, label %80

74:                                               ; preds = %71
  %75 = load ptr, ptr %9, align 8, !tbaa !3
  %76 = getelementptr inbounds nuw %struct._hashlibstate, ptr %75, i32 0, i32 4
  %77 = load ptr, ptr %76, align 8, !tbaa !63
  %78 = load ptr, ptr %6, align 8, !tbaa !21
  %79 = call ptr (ptr, ptr, ...) @_setException(ptr noundef %77, ptr noundef @.str.82, ptr noundef %78)
  store ptr null, ptr %4, align 8
  store i32 1, ptr %11, align 4
  br label %82

80:                                               ; preds = %71
  %81 = load ptr, ptr %8, align 8, !tbaa !17
  store ptr %81, ptr %4, align 8
  store i32 1, ptr %11, align 4
  br label %82

82:                                               ; preds = %80, %74
  call void @llvm.lifetime.end.p0(i64 8, ptr %10) #9
  call void @llvm.lifetime.end.p0(i64 8, ptr %9) #9
  call void @llvm.lifetime.end.p0(i64 8, ptr %8) #9
  %83 = load ptr, ptr %4, align 8
  ret ptr %83
}