; Function Attrs: nounwind uwtable
define internal fastcc ptr @py_digest_by_name(ptr noundef %0, ptr noundef %1, i32 noundef range(i32 0, 4) %2) unnamed_addr #0 {
  %4 = tail call ptr @PyModule_GetState(ptr noundef %0) #9
  %5 = getelementptr inbounds nuw i8, ptr %4, i64 40
  %6 = load ptr, ptr %5, align 8, !tbaa !50
  %7 = tail call ptr @_Py_hashtable_get(ptr noundef %6, ptr noundef %1) #9
  %.not = icmp eq ptr %7, null
  %switch26 = icmp eq i32 %2, 1
  br i1 %.not, label %27, label %8

8:                                                ; preds = %3
  br i1 %switch26, label %17, label %9

9:                                                ; preds = %8
  %10 = getelementptr inbounds nuw i8, ptr %7, i64 32
  %11 = load ptr, ptr %10, align 8, !tbaa !64
  %12 = icmp eq ptr %11, null
  br i1 %12, label %13, label %.thread33

13:                                               ; preds = %9
  %14 = getelementptr inbounds nuw i8, ptr %7, i64 16
  %15 = load ptr, ptr %14, align 8, !tbaa !65
  %16 = tail call ptr @EVP_MD_fetch(ptr noundef null, ptr noundef %15, ptr noundef null) #9
  store ptr %16, ptr %10, align 8, !tbaa !66
  br label %25

17:                                               ; preds = %8
  %18 = getelementptr inbounds nuw i8, ptr %7, i64 40
  %19 = load ptr, ptr %18, align 8, !tbaa !64
  %20 = icmp eq ptr %19, null
  br i1 %20, label %21, label %.thread33

21:                                               ; preds = %17
  %22 = getelementptr inbounds nuw i8, ptr %7, i64 16
  %23 = load ptr, ptr %22, align 8, !tbaa !65
  %24 = tail call ptr @EVP_MD_fetch(ptr noundef null, ptr noundef %23, ptr noundef nonnull @.str.81) #9
  store ptr %24, ptr %18, align 8, !tbaa !67
  br label %25

25:                                               ; preds = %21, %13
  %.022 = phi ptr [ %24, %21 ], [ %16, %13 ]
  %.not24 = icmp eq ptr %.022, null
  br i1 %.not24, label %.thread31, label %.thread33

.thread33:                                        ; preds = %25, %17, %9
  %.02230 = phi ptr [ %.022, %25 ], [ %11, %9 ], [ %19, %17 ]
  %26 = tail call i32 @EVP_MD_up_ref(ptr noundef nonnull %.02230) #9
  br label %32

27:                                               ; preds = %3
  %.str.81. = select i1 %switch26, ptr @.str.81, ptr null
  %28 = tail call ptr @EVP_MD_fetch(ptr noundef null, ptr noundef %1, ptr noundef %.str.81.) #9
  %29 = icmp eq ptr %28, null
  br i1 %29, label %.thread31, label %32

.thread31:                                        ; preds = %25, %27
  %30 = getelementptr inbounds nuw i8, ptr %4, i64 32
  %31 = load ptr, ptr %30, align 8, !tbaa !48
  tail call void (ptr, ptr, ...) @_setException(ptr noundef %31, ptr noundef nonnull @.str.82, ptr noundef %1)
  br label %32

32:                                               ; preds = %.thread33, %27, %.thread31
  %.0 = phi ptr [ null, %.thread31 ], [ %28, %27 ], [ %.02230, %.thread33 ]
  ret ptr %.0
}